target datalayout = "e-m:e-p270:32:32-p271:32:32-p272:64:64-i64:64-i128:128-f80:128-n8:16:32:64-S128"
target triple = "x86_64-pc-linux-gnu"

; Function Attrs: inlinehint mustprogress nounwind uwtable
define linkonce_odr dso_local noundef i32 @_Z21meshopt_quantizeSnormfi(float noundef %0, i32 noundef %1) #4 comdat {
  %3 = alloca float, align 4
  %4 = alloca i32, align 4
  %5 = alloca float, align 4
  %6 = alloca float, align 4
  store float %0, ptr %3, align 4, !tbaa !20
  store i32 %1, ptr %4, align 4, !tbaa !18
  call void @llvm.lifetime.start.p0(i64 4, ptr %5) #11
  %7 = load i32, ptr %4, align 4, !tbaa !18
  %8 = sub nsw i32 %7, 1
  %9 = shl i32 1, %8
  %10 = sub nsw i32 %9, 1
  %11 = sitofp i32 %10 to float
  store float %11, ptr %5, align 4, !tbaa !20
  call void @llvm.lifetime.start.p0(i64 4, ptr %6) #11
  %12 = load float, ptr %3, align 4, !tbaa !20
  %13 = fcmp oge float %12, 0.000000e+00
  %14 = select i1 %13, float 5.000000e-01, float -5.000000e-01
  store float %14, ptr %6, align 4, !tbaa !20
  %15 = load float, ptr %3, align 4, !tbaa !20
  %16 = fcmp oge float %15, -1.000000e+00
  br i1 %16, label %17, label %19

17:                                               ; preds = %2
  %18 = load float, ptr %3, align 4, !tbaa !20
  br label %20

19:                                               ; preds = %2
  br label %20

20:                                               ; preds = %19, %17
  %21 = phi float [ %18, %17 ], [ -1.000000e+00, %19 ]
  store float %21, ptr %3, align 4, !tbaa !20
  %22 = load float, ptr %3, align 4, !tbaa !20
  %23 = fcmp ole float %22, 1.000000e+00
  br i1 %23, label %24, label %26

24:                                               ; preds = %20
  %25 = load float, ptr %3, align 4, !tbaa !20
  br label %27

26:                                               ; preds = %20
  br label %27

27:                                               ; preds = %26, %24
  %28 = phi float [ %25, %24 ], [ 1.000000e+00, %26 ]
  store float %28, ptr %3, align 4, !tbaa !20
  %29 = load float, ptr %3, align 4, !tbaa !20
  %30 = load float, ptr %5, align 4, !tbaa !20
  %31 = load float, ptr %6, align 4, !tbaa !20
  %32 = call float @llvm.fmuladd.f32(float %29, float %30, float %31)
  %33 = fptosi float %32 to i32
  call void @llvm.lifetime.end.p0(i64 4, ptr %6) #11
  call void @llvm.lifetime.end.p0(i64 4, ptr %5) #11
  ret i32 %33
}

; Function Attrs: mustprogress uwtable
define dso_local void @meshopt_encodeFilterQuat(ptr noundef %0, i64 noundef %1, i64 noundef %2, i32 noundef %3, ptr noundef %4) #0 {
  %6 = alloca ptr, align 8
  %7 = alloca i64, align 8
  %8 = alloca i64, align 8
  %9 = alloca i32, align 4
  %10 = alloca ptr, align 8
  %11 = alloca ptr, align 8
  %12 = alloca float, align 4
  %13 = alloca i64, align 8
  %14 = alloca ptr, align 8
  %15 = alloca ptr, align 8
  %16 = alloca i32, align 4
  %17 = alloca float, align 4
  store ptr %0, ptr %6, align 8, !tbaa !4
  store i64 %1, ptr %7, align 8, !tbaa !8
  store i64 %2, ptr %8, align 8, !tbaa !8
  store i32 %3, ptr %9, align 4, !tbaa !18
  store ptr %4, ptr %10, align 8, !tbaa !30
  call void @llvm.lifetime.start.p0(i64 8, ptr %11) #11
  %18 = load ptr, ptr %6, align 8, !tbaa !4
  store ptr %18, ptr %11, align 8, !tbaa !15
  call void @llvm.lifetime.start.p0(i64 4, ptr %12) #11
  %19 = call float @sqrtf(float noundef 2.000000e+00) #11, !tbaa !18
  store float %19, ptr %12, align 4, !tbaa !20
  call void @llvm.lifetime.start.p0(i64 8, ptr %13) #11
  store i64 0, ptr %13, align 8, !tbaa !8
  br label %20

20:                                               ; preds = %145, %5
  %21 = load i64, ptr %13, align 8, !tbaa !8
  %22 = load i64, ptr %7, align 8, !tbaa !8
  %23 = icmp ult i64 %21, %22
  br i1 %23, label %25, label %24

24:                                               ; preds = %20
  call void @llvm.lifetime.end.p0(i64 8, ptr %13) #11
  br label %148

25:                                               ; preds = %20
  call void @llvm.lifetime.start.p0(i64 8, ptr %14) #11
  %26 = load ptr, ptr %10, align 8, !tbaa !30
  %27 = load i64, ptr %13, align 8, !tbaa !8
  %28 = mul i64 %27, 4
  %29 = getelementptr inbounds nuw float, ptr %26, i64 %28
  store ptr %29, ptr %14, align 8, !tbaa !30
  call void @llvm.lifetime.start.p0(i64 8, ptr %15) #11
  %30 = load ptr, ptr %11, align 8, !tbaa !15
  %31 = load i64, ptr %13, align 8, !tbaa !8
  %32 = mul i64 %31, 4
  %33 = getelementptr inbounds nuw i16, ptr %30, i64 %32
  store ptr %33, ptr %15, align 8, !tbaa !15
  call void @llvm.lifetime.start.p0(i64 4, ptr %16) #11
  store i32 0, ptr %16, align 4, !tbaa !18
  %34 = load ptr, ptr %14, align 8, !tbaa !30
  %35 = getelementptr inbounds float, ptr %34, i64 1
  %36 = load float, ptr %35, align 4, !tbaa !20
  %37 = call float @llvm.fabs.f32(float %36)
  %38 = load ptr, ptr %14, align 8, !tbaa !30
  %39 = load i32, ptr %16, align 4, !tbaa !18
  %40 = sext i32 %39 to i64
  %41 = getelementptr inbounds float, ptr %38, i64 %40
  %42 = load float, ptr %41, align 4, !tbaa !20
  %43 = call float @llvm.fabs.f32(float %42)
  %44 = fcmp ogt float %37, %43
  br i1 %44, label %45, label %46

45:                                               ; preds = %25
  br label %48

46:                                               ; preds = %25
  %47 = load i32, ptr %16, align 4, !tbaa !18
  br label %48

48:                                               ; preds = %46, %45
  %49 = phi i32 [ 1, %45 ], [ %47, %46 ]
  store i32 %49, ptr %16, align 4, !tbaa !18
  %50 = load ptr, ptr %14, align 8, !tbaa !30
  %51 = getelementptr inbounds float, ptr %50, i64 2
  %52 = load float, ptr %51, align 4, !tbaa !20
  %53 = call float @llvm.fabs.f32(float %52)
  %54 = load ptr, ptr %14, align 8, !tbaa !30
  %55 = load i32, ptr %16, align 4, !tbaa !18
  %56 = sext i32 %55 to i64
  %57 = getelementptr inbounds float, ptr %54, i64 %56
  %58 = load float, ptr %57, align 4, !tbaa !20
  %59 = call float @llvm.fabs.f32(float %58)
  %60 = fcmp ogt float %53, %59
  br i1 %60, label %61, label %62

61:                                               ; preds = %48
  br label %64

62:                                               ; preds = %48
  %63 = load i32, ptr %16, align 4, !tbaa !18
  br label %64

64:                                               ; preds = %62, %61
  %65 = phi i32 [ 2, %61 ], [ %63, %62 ]
  store i32 %65, ptr %16, align 4, !tbaa !18
  %66 = load ptr, ptr %14, align 8, !tbaa !30
  %67 = getelementptr inbounds float, ptr %66, i64 3
  %68 = load float, ptr %67, align 4, !tbaa !20
  %69 = call float @llvm.fabs.f32(float %68)
  %70 = load ptr, ptr %14, align 8, !tbaa !30
  %71 = load i32, ptr %16, align 4, !tbaa !18
  %72 = sext i32 %71 to i64
  %73 = getelementptr inbounds float, ptr %70, i64 %72
  %74 = load float, ptr %73, align 4, !tbaa !20
  %75 = call float @llvm.fabs.f32(float %74)
  %76 = fcmp ogt float %69, %75
  br i1 %76, label %77, label %78

77:                                               ; preds = %64
  br label %80

78:                                               ; preds = %64
  %79 = load i32, ptr %16, align 4, !tbaa !18
  br label %80

80:                                               ; preds = %78, %77
  %81 = phi i32 [ 3, %77 ], [ %79, %78 ]
  store i32 %81, ptr %16, align 4, !tbaa !18
  call void @llvm.lifetime.start.p0(i64 4, ptr %17) #11
  %82 = load ptr, ptr %14, align 8, !tbaa !30
  %83 = load i32, ptr %16, align 4, !tbaa !18
  %84 = sext i32 %83 to i64
  %85 = getelementptr inbounds float, ptr %82, i64 %84
  %86 = load float, ptr %85, align 4, !tbaa !20
  %87 = fcmp olt float %86, 0.000000e+00
  %88 = select i1 %87, float -1.000000e+00, float 1.000000e+00
  store float %88, ptr %17, align 4, !tbaa !20
  %89 = load ptr, ptr %14, align 8, !tbaa !30
  %90 = load i32, ptr %16, align 4, !tbaa !18
  %91 = add nsw i32 %90, 1
  %92 = and i32 %91, 3
  %93 = sext i32 %92 to i64
  %94 = getelementptr inbounds float, ptr %89, i64 %93
  %95 = load float, ptr %94, align 4, !tbaa !20
  %96 = load float, ptr %12, align 4, !tbaa !20
  %97 = fmul float %95, %96
  %98 = load float, ptr %17, align 4, !tbaa !20
  %99 = fmul float %97, %98
  %100 = load i32, ptr %9, align 4, !tbaa !18
  %101 = call noundef i32 @_Z21meshopt_quantizeSnormfi(float noundef %99, i32 noundef %100)
  %102 = trunc i32 %101 to i16
  %103 = load ptr, ptr %15, align 8, !tbaa !15
  %104 = getelementptr inbounds i16, ptr %103, i64 0
  store i16 %102, ptr %104, align 2, !tbaa !24
  %105 = load ptr, ptr %14, align 8, !tbaa !30
  %106 = load i32, ptr %16, align 4, !tbaa !18
  %107 = add nsw i32 %106, 2
  %108 = and i32 %107, 3
  %109 = sext i32 %108 to i64
  %110 = getelementptr inbounds float, ptr %105, i64 %109
  %111 = load float, ptr %110, align 4, !tbaa !20
  %112 = load float, ptr %12, align 4, !tbaa !20
  %113 = fmul float %111, %112
  %114 = load float, ptr %17, align 4, !tbaa !20
  %115 = fmul float %113, %114
  %116 = load i32, ptr %9, align 4, !tbaa !18
  %117 = call noundef i32 @_Z21meshopt_quantizeSnormfi(float noundef %115, i32 noundef %116)
  %118 = trunc i32 %117 to i16
  %119 = load ptr, ptr %15, align 8, !tbaa !15
  %120 = getelementptr inbounds i16, ptr %119, i64 1
  store i16 %118, ptr %120, align 2, !tbaa !24
  %121 = load ptr, ptr %14, align 8, !tbaa !30
  %122 = load i32, ptr %16, align 4, !tbaa !18
  %123 = add nsw i32 %122, 3
  %124 = and i32 %123, 3
  %125 = sext i32 %124 to i64
  %126 = getelementptr inbounds float, ptr %121, i64 %125
  %127 = load float, ptr %126, align 4, !tbaa !20
  %128 = load float, ptr %12, align 4, !tbaa !20
  %129 = fmul float %127, %128
  %130 = load float, ptr %17, align 4, !tbaa !20
  %131 = fmul float %129, %130
  %132 = load i32, ptr %9, align 4, !tbaa !18
  %133 = call noundef i32 @_Z21meshopt_quantizeSnormfi(float noundef %131, i32 noundef %132)
  %134 = trunc i32 %133 to i16
  %135 = load ptr, ptr %15, align 8, !tbaa !15
  %136 = getelementptr inbounds i16, ptr %135, i64 2
  store i16 %134, ptr %136, align 2, !tbaa !24
  %137 = load i32, ptr %9, align 4, !tbaa !18
  %138 = call noundef i32 @_Z21meshopt_quantizeSnormfi(float noundef 1.000000e+00, i32 noundef %137)
  %139 = and i32 %138, -4
  %140 = load i32, ptr %16, align 4, !tbaa !18
  %141 = or i32 %139, %140
  %142 = trunc i32 %141 to i16
  %143 = load ptr, ptr %15, align 8, !tbaa !15
  %144 = getelementptr inbounds i16, ptr %143, i64 3
  store i16 %142, ptr %144, align 2, !tbaa !24
  call void @llvm.lifetime.end.p0(i64 4, ptr %17) #11
  call void @llvm.lifetime.end.p0(i64 4, ptr %16) #11
  call void @llvm.lifetime.end.p0(i64 8, ptr %15) #11
  call void @llvm.lifetime.end.p0(i64 8, ptr %14) #11
  br label %145

145:                                              ; preds = %80
  %146 = load i64, ptr %13, align 8, !tbaa !8
  %147 = add i64 %146, 1
  store i64 %147, ptr %13, align 8, !tbaa !8
  br label %20, !llvm.loop !33

148:                                              ; preds = %24
  call void @llvm.lifetime.end.p0(i64 4, ptr %12) #11
  call void @llvm.lifetime.end.p0(i64 8, ptr %11) #11
  ret void
}