; Function Attrs: mustprogress nofree norecurse nosync nounwind memory(argmem: readwrite) uwtable
define dso_local void @meshopt_encodeFilterQuat(ptr noundef writeonly captures(none) %0, i64 noundef %1, i64 noundef %2, i32 noundef %3, ptr noundef readonly captures(none) %4) local_unnamed_addr #1 {
  %.not = icmp eq i64 %1, 0
  br i1 %.not, label %._crit_edge, label %.lr.ph

.lr.ph:                                           ; preds = %5
  %6 = add nsw i32 %3, -1
  %notmask.i = shl nsw i32 -1, %6
  %7 = xor i32 %notmask.i, -1
  %8 = uitofp nneg i32 %7 to float
  %9 = fadd float %8, 5.000000e-01
  %10 = fptosi float %9 to i32
  %11 = and i32 %10, 65532
  br label %12

._crit_edge:                                      ; preds = %12, %5
  ret void

12:                                               ; preds = %.lr.ph, %12
  %.045 = phi i64 [ 0, %.lr.ph ], [ %98, %12 ]
  %13 = shl i64 %.045, 2
  %14 = getelementptr inbounds nuw float, ptr %4, i64 %13
  %15 = getelementptr inbounds nuw i16, ptr %0, i64 %13
  %16 = getelementptr inbounds nuw i8, ptr %14, i64 4
  %17 = load float, ptr %16, align 4, !tbaa !14
  %18 = tail call float @llvm.fabs.f32(float %17)
  %19 = load float, ptr %14, align 4, !tbaa !14
  %20 = tail call float @llvm.fabs.f32(float %19)
  %21 = fcmp ogt float %18, %20
  %22 = zext i1 %21 to i32
  %23 = getelementptr inbounds nuw i8, ptr %14, i64 8
  %24 = load float, ptr %23, align 4, !tbaa !14
  %25 = tail call float @llvm.fabs.f32(float %24)
  %26 = zext i1 %21 to i64
  %27 = getelementptr inbounds nuw float, ptr %14, i64 %26
  %28 = load float, ptr %27, align 4, !tbaa !14
  %29 = tail call float @llvm.fabs.f32(float %28)
  %30 = fcmp ogt float %25, %29
  %31 = select i1 %30, i32 2, i32 %22
  %32 = getelementptr inbounds nuw i8, ptr %14, i64 12
  %33 = load float, ptr %32, align 4, !tbaa !14
  %34 = tail call float @llvm.fabs.f32(float %33)
  %35 = zext nneg i32 %31 to i64
  %36 = getelementptr inbounds nuw float, ptr %14, i64 %35
  %37 = load float, ptr %36, align 4, !tbaa !14
  %38 = tail call float @llvm.fabs.f32(float %37)
  %39 = fcmp ogt float %34, %38
  %40 = select i1 %39, i32 3, i32 %31
  %41 = zext nneg i32 %40 to i64
  %42 = getelementptr inbounds nuw float, ptr %14, i64 %41
  %43 = load float, ptr %42, align 4, !tbaa !14
  %44 = fcmp olt float %43, 0.000000e+00
  %45 = select i1 %44, float -1.000000e+00, float 1.000000e+00
  %46 = add nuw nsw i32 %40, 1
  %47 = and i32 %46, 3
  %48 = zext nneg i32 %47 to i64
  %49 = getelementptr inbounds nuw float, ptr %14, i64 %48
  %50 = load float, ptr %49, align 4, !tbaa !14
  %51 = fmul float %50, 0x3FF6A09E60000000
  %52 = fmul float %51, %45
  %53 = fcmp oge float %52, 0.000000e+00
  %54 = select i1 %53, float 5.000000e-01, float -5.000000e-01
  %55 = fcmp oge float %52, -1.000000e+00
  %56 = select i1 %55, float %52, float -1.000000e+00
  %57 = fcmp ole float %56, 1.000000e+00
  %58 = select i1 %57, float %56, float 1.000000e+00
  %59 = tail call float @llvm.fmuladd.f32(float %58, float %8, float %54)
  %60 = fptosi float %59 to i32
  %61 = trunc i32 %60 to i16
  store i16 %61, ptr %15, align 2, !tbaa !16
  %62 = xor i32 %40, 2
  %63 = zext nneg i32 %62 to i64
  %64 = getelementptr inbounds nuw float, ptr %14, i64 %63
  %65 = load float, ptr %64, align 4, !tbaa !14
  %66 = fmul float %65, 0x3FF6A09E60000000
  %67 = fmul float %45, %66
  %68 = fcmp oge float %67, 0.000000e+00
  %69 = select i1 %68, float 5.000000e-01, float -5.000000e-01
  %70 = fcmp oge float %67, -1.000000e+00
  %71 = select i1 %70, float %67, float -1.000000e+00
  %72 = fcmp ole float %71, 1.000000e+00
  %73 = select i1 %72, float %71, float 1.000000e+00
  %74 = tail call float @llvm.fmuladd.f32(float %73, float %8, float %69)
  %75 = fptosi float %74 to i32
  %76 = trunc i32 %75 to i16
  %77 = getelementptr inbounds nuw i8, ptr %15, i64 2
  store i16 %76, ptr %77, align 2, !tbaa !16
  %78 = add nuw nsw i32 %40, 3
  %79 = and i32 %78, 3
  %80 = zext nneg i32 %79 to i64
  %81 = getelementptr inbounds nuw float, ptr %14, i64 %80
  %82 = load float, ptr %81, align 4, !tbaa !14
  %83 = fmul float %82, 0x3FF6A09E60000000
  %84 = fmul float %45, %83
  %85 = fcmp oge float %84, 0.000000e+00
  %86 = select i1 %85, float 5.000000e-01, float -5.000000e-01
  %87 = fcmp oge float %84, -1.000000e+00
  %88 = select i1 %87, float %84, float -1.000000e+00
  %89 = fcmp ole float %88, 1.000000e+00
  %90 = select i1 %89, float %88, float 1.000000e+00
  %91 = tail call float @llvm.fmuladd.f32(float %90, float %8, float %86)
  %92 = fptosi float %91 to i32
  %93 = trunc i32 %92 to i16
  %94 = getelementptr inbounds nuw i8, ptr %15, i64 4
  store i16 %93, ptr %94, align 2, !tbaa !16
  %95 = or disjoint i32 %40, %11
  %96 = trunc nuw i32 %95 to i16
  %97 = getelementptr inbounds nuw i8, ptr %15, i64 6
  store i16 %96, ptr %97, align 2, !tbaa !16
  %98 = add nuw i64 %.045, 1
  %exitcond.not = icmp eq i64 %98, %1
  br i1 %exitcond.not, label %._crit_edge, label %12, !llvm.loop !19
}